target datalayout = "e-m:e-p270:32:32-p271:32:32-p272:64:64-i64:64-i128:128-f80:128-n8:16:32:64-S128"
target triple = "x86_64-pc-linux-gnu"

%struct._object = type { %union.anon, ptr }
%union.anon = type { i64 }
%struct.PyFloatObject = type { %struct._object, double }

; Function Attrs: inlinehint nounwind uwtable
define internal double @PyFloat_AS_DOUBLE(ptr noundef %0) #2 {
  %2 = alloca ptr, align 8
  store ptr %0, ptr %2, align 8, !tbaa !36
  %3 = load ptr, ptr %2, align 8, !tbaa !36
  %4 = getelementptr inbounds nuw %struct.PyFloatObject, ptr %3, i32 0, i32 1
  %5 = load double, ptr %4, align 8, !tbaa !209
  ret double %5
}

; Function Attrs: nounwind uwtable
define internal i32 @unsafe_float_compare(ptr noundef %0, ptr noundef %1, ptr noundef %2) #0 {
  %4 = alloca ptr, align 8
  %5 = alloca ptr, align 8
  %6 = alloca ptr, align 8
  %7 = alloca i32, align 4
  store ptr %0, ptr %4, align 8, !tbaa !36
  store ptr %1, ptr %5, align 8, !tbaa !36
  store ptr %2, ptr %6, align 8, !tbaa !183
  call void @llvm.lifetime.start.p0(i64 4, ptr %7) #8
  %8 = load ptr, ptr %4, align 8, !tbaa !36
  %9 = call double @PyFloat_AS_DOUBLE(ptr noundef %8)
  %10 = load ptr, ptr %5, align 8, !tbaa !36
  %11 = call double @PyFloat_AS_DOUBLE(ptr noundef %10)
  %12 = fcmp olt double %9, %11
  %13 = zext i1 %12 to i32
  store i32 %13, ptr %7, align 4, !tbaa !118
  %14 = load i32, ptr %7, align 4, !tbaa !118
  call void @llvm.lifetime.end.p0(i64 4, ptr %7) #8
  ret i32 %14
}