; Function Attrs: mustprogress nofree norecurse nosync nounwind willreturn memory(argmem: read) uwtable
define internal range(i32 0, 2) i32 @unsafe_float_compare(ptr noundef readonly captures(none) %0, ptr noundef readonly captures(none) %1, ptr readnone captures(none) %2) #7 {
  %4 = getelementptr i8, ptr %0, i64 16
  %.val = load double, ptr %4, align 8, !tbaa !189
  %5 = getelementptr i8, ptr %1, i64 16
  %.val2 = load double, ptr %5, align 8, !tbaa !189
  %6 = fcmp olt double %.val, %.val2
  %7 = zext i1 %6 to i32
  ret i32 %7
}